target datalayout = "e-m:e-p270:32:32-p271:32:32-p272:64:64-i64:64-i128:128-f80:128-n8:16:32:64-S128"
target triple = "x86_64-pc-linux-gnu"

%struct.lean_object = type { i32, i32 }
%struct.lean_ctor_object = type { %struct.lean_object, [0 x ptr] }

; Function Attrs: inlinehint nounwind uwtable
define internal ptr @lean_to_ctor(ptr noundef %0) #0 {
  %2 = alloca ptr, align 8
  store ptr %0, ptr %2, align 8, !tbaa !4
  %3 = load ptr, ptr %2, align 8, !tbaa !4
  ret ptr %3
}

; Function Attrs: inlinehint nounwind uwtable
define internal ptr @lean_ctor_obj_cptr(ptr noundef %0) #0 {
  %2 = alloca ptr, align 8
  store ptr %0, ptr %2, align 8, !tbaa !4
  %3 = load ptr, ptr %2, align 8, !tbaa !4
  %4 = call ptr @lean_to_ctor(ptr noundef %3)
  %5 = getelementptr inbounds nuw %struct.lean_ctor_object, ptr %4, i32 0, i32 1
  %6 = getelementptr inbounds [0 x ptr], ptr %5, i64 0, i64 0
  ret ptr %6
}

; Function Attrs: inlinehint nounwind uwtable
define internal zeroext i8 @lean_ptr_tag(ptr noundef %0) #0 {
  %2 = alloca ptr, align 8
  store ptr %0, ptr %2, align 8, !tbaa !4
  %3 = load ptr, ptr %2, align 8, !tbaa !4
  %4 = getelementptr inbounds nuw %struct.lean_object, ptr %3, i32 0, i32 1
  %5 = load i32, ptr %4, align 4
  %6 = lshr i32 %5, 24
  %7 = trunc i32 %6 to i8
  ret i8 %7
}

; Function Attrs: alwaysinline nounwind uwtable
define internal zeroext i1 @lean_is_scalar(ptr noundef %0) #1 {
  %2 = alloca ptr, align 8
  store ptr %0, ptr %2, align 8, !tbaa !4
  %3 = load ptr, ptr %2, align 8, !tbaa !4
  %4 = ptrtoint ptr %3 to i64
  %5 = and i64 %4, 1
  %6 = icmp eq i64 %5, 1
  ret i1 %6
}

; Function Attrs: inlinehint nounwind uwtable
define internal i64 @lean_unbox(ptr noundef %0) #0 {
  %2 = alloca ptr, align 8
  store ptr %0, ptr %2, align 8, !tbaa !4
  %3 = load ptr, ptr %2, align 8, !tbaa !4
  %4 = ptrtoint ptr %3 to i64
  %5 = lshr i64 %4, 1
  ret i64 %5
}

; Function Attrs: inlinehint nounwind uwtable
define internal ptr @lean_ctor_get(ptr noundef %0, i32 noundef %1) #0 {
  %3 = alloca ptr, align 8
  %4 = alloca i32, align 4
  store ptr %0, ptr %3, align 8, !tbaa !4
  store i32 %1, ptr %4, align 4, !tbaa !13
  %5 = load ptr, ptr %3, align 8, !tbaa !4
  %6 = call ptr @lean_ctor_obj_cptr(ptr noundef %5)
  %7 = load i32, ptr %4, align 4, !tbaa !13
  %8 = zext i32 %7 to i64
  %9 = getelementptr inbounds nuw ptr, ptr %6, i64 %8
  %10 = load ptr, ptr %9, align 8, !tbaa !4
  ret ptr %10
}

; Function Attrs: inlinehint nounwind uwtable
define internal i32 @lean_obj_tag(ptr noundef %0) #0 {
  %2 = alloca i32, align 4
  %3 = alloca ptr, align 8
  store ptr %0, ptr %3, align 8, !tbaa !4
  %4 = load ptr, ptr %3, align 8, !tbaa !4
  %5 = call zeroext i1 @lean_is_scalar(ptr noundef %4)
  br i1 %5, label %6, label %10

6:                                                ; preds = %1
  %7 = load ptr, ptr %3, align 8, !tbaa !4
  %8 = call i64 @lean_unbox(ptr noundef %7)
  %9 = trunc i64 %8 to i32
  store i32 %9, ptr %2, align 4
  br label %14

10:                                               ; preds = %1
  %11 = load ptr, ptr %3, align 8, !tbaa !4
  %12 = call zeroext i8 @lean_ptr_tag(ptr noundef %11)
  %13 = zext i8 %12 to i32
  store i32 %13, ptr %2, align 4
  br label %14

14:                                               ; preds = %10, %6
  %15 = load i32, ptr %2, align 4
  ret i32 %15
}

; Function Attrs: nounwind uwtable
define zeroext i8 @l_Std_DHashMap_Internal_AssocList_contains___at___private_Lean_Server_Completion_CompletionInfoSelection_0__Lean_Server_Completion_computePrioritizedCompletionPartitions___spec__2(ptr noundef %0, ptr noundef %1) #2 {
  %3 = alloca i8, align 1
  %4 = alloca ptr, align 8
  %5 = alloca ptr, align 8
  %6 = alloca i8, align 1
  %7 = alloca ptr, align 8
  %8 = alloca ptr, align 8
  %9 = alloca i8, align 1
  %10 = alloca ptr, align 8
  %11 = alloca i8, align 1
  %12 = alloca ptr, align 8
  %13 = alloca ptr, align 8
  %14 = alloca ptr, align 8
  %15 = alloca i8, align 1
  %16 = alloca i32, align 4
  %17 = alloca i8, align 1
  %18 = alloca ptr, align 8
  %19 = alloca ptr, align 8
  %20 = alloca i8, align 1
  %21 = alloca ptr, align 8
  %22 = alloca ptr, align 8
  %23 = alloca ptr, align 8
  %24 = alloca ptr, align 8
  %25 = alloca i8, align 1
  %26 = alloca i8, align 1
  store ptr %0, ptr %4, align 8, !tbaa !4
  store ptr %1, ptr %5, align 8, !tbaa !4
  br label %27

27:                                               ; preds = %108, %2
  %28 = load ptr, ptr %5, align 8, !tbaa !4
  %29 = call i32 @lean_obj_tag(ptr noundef %28)
  %30 = icmp eq i32 %29, 0
  br i1 %30, label %31, label %33

31:                                               ; preds = %27
  call void @llvm.lifetime.start.p0(i64 1, ptr %6) #7
  store i8 0, ptr %6, align 1, !tbaa !12
  %32 = load i8, ptr %6, align 1, !tbaa !12
  store i8 %32, ptr %3, align 1
  call void @llvm.lifetime.end.p0(i64 1, ptr %6) #7
  br label %110

33:                                               ; preds = %27
  call void @llvm.lifetime.start.p0(i64 8, ptr %7) #7
  call void @llvm.lifetime.start.p0(i64 8, ptr %8) #7
  call void @llvm.lifetime.start.p0(i64 1, ptr %9) #7
  %34 = load ptr, ptr %5, align 8, !tbaa !4
  %35 = call ptr @lean_ctor_get(ptr noundef %34, i32 noundef 0)
  store ptr %35, ptr %7, align 8, !tbaa !4
  %36 = load ptr, ptr %7, align 8, !tbaa !4
  %37 = call ptr @lean_ctor_get(ptr noundef %36, i32 noundef 0)
  store ptr %37, ptr %8, align 8, !tbaa !4
  %38 = load ptr, ptr %8, align 8, !tbaa !4
  %39 = call i64 @lean_unbox(ptr noundef %38)
  %40 = trunc i64 %39 to i8
  store i8 %40, ptr %9, align 1, !tbaa !12
  %41 = load i8, ptr %9, align 1, !tbaa !12
  %42 = zext i8 %41 to i32
  %43 = icmp eq i32 %42, 0
  br i1 %43, label %44, label %76

44:                                               ; preds = %33
  call void @llvm.lifetime.start.p0(i64 8, ptr %10) #7
  call void @llvm.lifetime.start.p0(i64 1, ptr %11) #7
  %45 = load ptr, ptr %4, align 8, !tbaa !4
  %46 = call ptr @lean_ctor_get(ptr noundef %45, i32 noundef 0)
  store ptr %46, ptr %10, align 8, !tbaa !4
  %47 = load ptr, ptr %10, align 8, !tbaa !4
  %48 = call i64 @lean_unbox(ptr noundef %47)
  %49 = trunc i64 %48 to i8
  store i8 %49, ptr %11, align 1, !tbaa !12
  %50 = load i8, ptr %11, align 1, !tbaa !12
  %51 = zext i8 %50 to i32
  %52 = icmp eq i32 %51, 0
  br i1 %52, label %53, label %71

53:                                               ; preds = %44
  call void @llvm.lifetime.start.p0(i64 8, ptr %12) #7
  call void @llvm.lifetime.start.p0(i64 8, ptr %13) #7
  call void @llvm.lifetime.start.p0(i64 8, ptr %14) #7
  call void @llvm.lifetime.start.p0(i64 1, ptr %15) #7
  %54 = load ptr, ptr %5, align 8, !tbaa !4
  %55 = call ptr @lean_ctor_get(ptr noundef %54, i32 noundef 2)
  store ptr %55, ptr %12, align 8, !tbaa !4
  %56 = load ptr, ptr %7, align 8, !tbaa !4
  %57 = call ptr @lean_ctor_get(ptr noundef %56, i32 noundef 1)
  store ptr %57, ptr %13, align 8, !tbaa !4
  %58 = load ptr, ptr %4, align 8, !tbaa !4
  %59 = call ptr @lean_ctor_get(ptr noundef %58, i32 noundef 1)
  store ptr %59, ptr %14, align 8, !tbaa !4
  %60 = load ptr, ptr %13, align 8, !tbaa !4
  %61 = load ptr, ptr %14, align 8, !tbaa !4
  %62 = call zeroext i8 @l_Option_beqOption____x40_Init_Data_Option_Basic___hyg_160____at_System_FilePath_parent___spec__1(ptr noundef %60, ptr noundef %61)
  store i8 %62, ptr %15, align 1, !tbaa !12
  %63 = load i8, ptr %15, align 1, !tbaa !12
  %64 = zext i8 %63 to i32
  %65 = icmp eq i32 %64, 0
  br i1 %65, label %66, label %68

66:                                               ; preds = %53
  %67 = load ptr, ptr %12, align 8, !tbaa !4
  store ptr %67, ptr %5, align 8, !tbaa !4
  store i32 2, ptr %16, align 4
  br label %70

68:                                               ; preds = %53
  call void @llvm.lifetime.start.p0(i64 1, ptr %17) #7
  store i8 1, ptr %17, align 1, !tbaa !12
  %69 = load i8, ptr %17, align 1, !tbaa !12
  store i8 %69, ptr %3, align 1
  store i32 1, ptr %16, align 4
  call void @llvm.lifetime.end.p0(i64 1, ptr %17) #7
  br label %70

70:                                               ; preds = %68, %66
  call void @llvm.lifetime.end.p0(i64 1, ptr %15) #7
  call void @llvm.lifetime.end.p0(i64 8, ptr %14) #7
  call void @llvm.lifetime.end.p0(i64 8, ptr %13) #7
  call void @llvm.lifetime.end.p0(i64 8, ptr %12) #7
  br label %75

71:                                               ; preds = %44
  call void @llvm.lifetime.start.p0(i64 8, ptr %18) #7
  %72 = load ptr, ptr %5, align 8, !tbaa !4
  %73 = call ptr @lean_ctor_get(ptr noundef %72, i32 noundef 2)
  store ptr %73, ptr %18, align 8, !tbaa !4
  %74 = load ptr, ptr %18, align 8, !tbaa !4
  store ptr %74, ptr %5, align 8, !tbaa !4
  store i32 2, ptr %16, align 4
  call void @llvm.lifetime.end.p0(i64 8, ptr %18) #7
  br label %75

75:                                               ; preds = %71, %70
  call void @llvm.lifetime.end.p0(i64 1, ptr %11) #7
  call void @llvm.lifetime.end.p0(i64 8, ptr %10) #7
  br label %108

76:                                               ; preds = %33
  call void @llvm.lifetime.start.p0(i64 8, ptr %19) #7
  call void @llvm.lifetime.start.p0(i64 1, ptr %20) #7
  %77 = load ptr, ptr %4, align 8, !tbaa !4
  %78 = call ptr @lean_ctor_get(ptr noundef %77, i32 noundef 0)
  store ptr %78, ptr %19, align 8, !tbaa !4
  %79 = load ptr, ptr %19, align 8, !tbaa !4
  %80 = call i64 @lean_unbox(ptr noundef %79)
  %81 = trunc i64 %80 to i8
  store i8 %81, ptr %20, align 1, !tbaa !12
  %82 = load i8, ptr %20, align 1, !tbaa !12
  %83 = zext i8 %82 to i32
  %84 = icmp eq i32 %83, 0
  br i1 %84, label %85, label %89

85:                                               ; preds = %76
  call void @llvm.lifetime.start.p0(i64 8, ptr %21) #7
  %86 = load ptr, ptr %5, align 8, !tbaa !4
  %87 = call ptr @lean_ctor_get(ptr noundef %86, i32 noundef 2)
  store ptr %87, ptr %21, align 8, !tbaa !4
  %88 = load ptr, ptr %21, align 8, !tbaa !4
  store ptr %88, ptr %5, align 8, !tbaa !4
  store i32 2, ptr %16, align 4
  call void @llvm.lifetime.end.p0(i64 8, ptr %21) #7
  br label %107

89:                                               ; preds = %76
  call void @llvm.lifetime.start.p0(i64 8, ptr %22) #7
  call void @llvm.lifetime.start.p0(i64 8, ptr %23) #7
  call void @llvm.lifetime.start.p0(i64 8, ptr %24) #7
  call void @llvm.lifetime.start.p0(i64 1, ptr %25) #7
  %90 = load ptr, ptr %5, align 8, !tbaa !4
  %91 = call ptr @lean_ctor_get(ptr noundef %90, i32 noundef 2)
  store ptr %91, ptr %22, align 8, !tbaa !4
  %92 = load ptr, ptr %7, align 8, !tbaa !4
  %93 = call ptr @lean_ctor_get(ptr noundef %92, i32 noundef 1)
  store ptr %93, ptr %23, align 8, !tbaa !4
  %94 = load ptr, ptr %4, align 8, !tbaa !4
  %95 = call ptr @lean_ctor_get(ptr noundef %94, i32 noundef 1)
  store ptr %95, ptr %24, align 8, !tbaa !4
  %96 = load ptr, ptr %23, align 8, !tbaa !4
  %97 = load ptr, ptr %24, align 8, !tbaa !4
  %98 = call zeroext i8 @l_Option_beqOption____x40_Init_Data_Option_Basic___hyg_160____at_System_FilePath_parent___spec__1(ptr noundef %96, ptr noundef %97)
  store i8 %98, ptr %25, align 1, !tbaa !12
  %99 = load i8, ptr %25, align 1, !tbaa !12
  %100 = zext i8 %99 to i32
  %101 = icmp eq i32 %100, 0
  br i1 %101, label %102, label %104

102:                                              ; preds = %89
  %103 = load ptr, ptr %22, align 8, !tbaa !4
  store ptr %103, ptr %5, align 8, !tbaa !4
  store i32 2, ptr %16, align 4
  br label %106

104:                                              ; preds = %89
  call void @llvm.lifetime.start.p0(i64 1, ptr %26) #7
  store i8 1, ptr %26, align 1, !tbaa !12
  %105 = load i8, ptr %26, align 1, !tbaa !12
  store i8 %105, ptr %3, align 1
  store i32 1, ptr %16, align 4
  call void @llvm.lifetime.end.p0(i64 1, ptr %26) #7
  br label %106

106:                                              ; preds = %104, %102
  call void @llvm.lifetime.end.p0(i64 1, ptr %25) #7
  call void @llvm.lifetime.end.p0(i64 8, ptr %24) #7
  call void @llvm.lifetime.end.p0(i64 8, ptr %23) #7
  call void @llvm.lifetime.end.p0(i64 8, ptr %22) #7
  br label %107

107:                                              ; preds = %106, %85
  call void @llvm.lifetime.end.p0(i64 1, ptr %20) #7
  call void @llvm.lifetime.end.p0(i64 8, ptr %19) #7
  br label %108

108:                                              ; preds = %107, %75
  call void @llvm.lifetime.end.p0(i64 1, ptr %9) #7
  call void @llvm.lifetime.end.p0(i64 8, ptr %8) #7
  call void @llvm.lifetime.end.p0(i64 8, ptr %7) #7
  %109 = load i32, ptr %16, align 4
  switch i32 %109, label %112 [
    i32 2, label %27
    i32 1, label %110
  ]

110:                                              ; preds = %108, %31
  %111 = load i8, ptr %3, align 1
  ret i8 %111

112:                                              ; preds = %108
  unreachable
}