; Function Attrs: nounwind uwtable
define zeroext range(i8 0, 2) i8 @l_Std_DHashMap_Internal_AssocList_contains___at___private_Lean_Server_Completion_CompletionInfoSelection_0__Lean_Server_Completion_computePrioritizedCompletionPartitions___spec__2(ptr noundef readonly captures(none) %0, ptr noundef %1) local_unnamed_addr #0 {
  %3 = getelementptr inbounds nuw i8, ptr %0, i64 8
  %4 = getelementptr inbounds nuw i8, ptr %0, i64 16
  br label %.backedge

.backedge:                                        ; preds = %.backedge.backedge, %2
  %.033 = phi ptr [ %1, %2 ], [ %27, %.backedge.backedge ]
  %5 = ptrtoint ptr %.033 to i64
  %6 = and i64 %5, 1
  %.not.i = icmp eq i64 %6, 0
  br i1 %.not.i, label %10, label %7

7:                                                ; preds = %.backedge
  %8 = lshr i64 %5, 1
  %9 = trunc i64 %8 to i32
  br label %lean_obj_tag.exit

10:                                               ; preds = %.backedge
  %11 = getelementptr i8, ptr %.033, i64 4
  %.val.i = load i32, ptr %11, align 4
  %12 = lshr i32 %.val.i, 24
  br label %lean_obj_tag.exit

lean_obj_tag.exit:                                ; preds = %7, %10
  %.0.i = phi i32 [ %9, %7 ], [ %12, %10 ]
  %13 = icmp eq i32 %.0.i, 0
  br i1 %13, label %42, label %14

14:                                               ; preds = %lean_obj_tag.exit
  %15 = getelementptr inbounds nuw i8, ptr %.033, i64 8
  %16 = load ptr, ptr %15, align 8, !tbaa !4
  %17 = getelementptr inbounds nuw i8, ptr %16, i64 8
  %18 = load ptr, ptr %17, align 8, !tbaa !4
  %19 = ptrtoint ptr %18 to i64
  %20 = and i64 %19, 510
  %21 = icmp eq i64 %20, 0
  %22 = load ptr, ptr %3, align 8, !tbaa !4
  %23 = ptrtoint ptr %22 to i64
  %24 = and i64 %23, 510
  %25 = icmp eq i64 %24, 0
  %26 = getelementptr inbounds nuw i8, ptr %.033, i64 24
  %27 = load ptr, ptr %26, align 8, !tbaa !4
  br i1 %21, label %28, label %35

28:                                               ; preds = %14
  br i1 %25, label %29, label %.backedge.backedge

29:                                               ; preds = %28
  %30 = getelementptr inbounds nuw i8, ptr %16, i64 16
  %31 = load ptr, ptr %30, align 8, !tbaa !4
  %32 = load ptr, ptr %4, align 8, !tbaa !4
  %33 = tail call zeroext i8 @l_Option_beqOption____x40_Init_Data_Option_Basic___hyg_160____at_System_FilePath_parent___spec__1(ptr noundef %31, ptr noundef %32) #4
  %34 = icmp eq i8 %33, 0
  br i1 %34, label %.backedge.backedge, label %42

35:                                               ; preds = %14
  br i1 %25, label %.backedge.backedge, label %36

.backedge.backedge:                               ; preds = %35, %28, %36, %29
  br label %.backedge

36:                                               ; preds = %35
  %37 = getelementptr inbounds nuw i8, ptr %16, i64 16
  %38 = load ptr, ptr %37, align 8, !tbaa !4
  %39 = load ptr, ptr %4, align 8, !tbaa !4
  %40 = tail call zeroext i8 @l_Option_beqOption____x40_Init_Data_Option_Basic___hyg_160____at_System_FilePath_parent___spec__1(ptr noundef %38, ptr noundef %39) #4
  %41 = icmp eq i8 %40, 0
  br i1 %41, label %.backedge.backedge, label %42

42:                                               ; preds = %29, %36, %lean_obj_tag.exit
  %.1 = phi i8 [ 1, %36 ], [ 0, %lean_obj_tag.exit ], [ 1, %29 ]
  ret i8 %.1
}